target datalayout = "e-m:e-p270:32:32-p271:32:32-p272:64:64-i64:64-i128:128-f80:128-n8:16:32:64-S128"
target triple = "x86_64-pc-linux-gnu"

%struct.AVBSFContext = type { ptr, ptr, ptr, ptr, ptr, %struct.AVRational, %struct.AVRational }
%struct.AVRational = type { i32, i32 }
%struct.FilterUnitsContext = type { ptr, ptr, %struct.CodedBitstreamFragment, ptr, ptr, i32, i32, i32, ptr, i32, i8 }
%struct.CodedBitstreamFragment = type { ptr, i64, i64, ptr, i32, i32, ptr }
%struct.AVCodecParameters = type { i32, i32, i32, ptr, i32, ptr, i32, i32, i64, i32, i32, i32, i32, i32, i32, %struct.AVRational, %struct.AVRational, i32, i32, i32, i32, i32, i32, i32, %struct.AVChannelLayout, i32, i32, i32, i32, i32, i32 }
%struct.AVChannelLayout = type { i32, i32, %union.anon.0, ptr }
%union.anon.0 = type { i64 }
%struct.CodedBitstreamContext = type { ptr, ptr, ptr, ptr, i32, i32, i32, ptr, ptr, ptr, ptr, i64 }

@.str.27 = private unnamed_addr constant [56 x i8] c"Exactly one of pass_types or remove_types is required.\0A\00", align 1
@.str.28 = private unnamed_addr constant [29 x i8] c"Failed to parse pass_types.\0A\00", align 1
@.str.29 = private unnamed_addr constant [31 x i8] c"Failed to parse remove_types.\0A\00", align 1
@.str.30 = private unnamed_addr constant [27 x i8] c"Failed to read extradata.\0A\00", align 1
@.str.31 = private unnamed_addr constant [28 x i8] c"Failed to write extradata.\0A\00", align 1

; Function Attrs: nounwind uwtable
define internal i32 @filter_units_init(ptr noundef %0) #0 {
  %2 = alloca i32, align 4
  %3 = alloca ptr, align 8
  %4 = alloca ptr, align 8
  %5 = alloca i32, align 4
  %6 = alloca i32, align 4
  %7 = alloca ptr, align 8
  store ptr %0, ptr %3, align 8, !tbaa !4
  call void @llvm.lifetime.start.p0(i64 8, ptr %4) #4
  %8 = load ptr, ptr %3, align 8, !tbaa !4
  %9 = getelementptr inbounds nuw %struct.AVBSFContext, ptr %8, i32 0, i32 2
  %10 = load ptr, ptr %9, align 8, !tbaa !9
  store ptr %10, ptr %4, align 8, !tbaa !16
  call void @llvm.lifetime.start.p0(i64 4, ptr %5) #4
  %11 = load ptr, ptr %4, align 8, !tbaa !16
  %12 = getelementptr inbounds nuw %struct.FilterUnitsContext, ptr %11, i32 0, i32 3
  %13 = load ptr, ptr %12, align 8, !tbaa !18
  %14 = icmp ne ptr %13, null
  br i1 %14, label %15, label %22

15:                                               ; preds = %1
  %16 = load ptr, ptr %4, align 8, !tbaa !16
  %17 = getelementptr inbounds nuw %struct.FilterUnitsContext, ptr %16, i32 0, i32 4
  %18 = load ptr, ptr %17, align 8, !tbaa !28
  %19 = icmp ne ptr %18, null
  br i1 %19, label %20, label %22

20:                                               ; preds = %15
  %21 = load ptr, ptr %3, align 8, !tbaa !4
  call void (ptr, i32, ptr, ...) @av_log(ptr noundef %21, i32 noundef 16, ptr noundef @.str.27)
  store i32 -22, ptr %2, align 4
  store i32 1, ptr %6, align 4
  br label %147

22:                                               ; preds = %15, %1
  %23 = load ptr, ptr %4, align 8, !tbaa !16
  %24 = getelementptr inbounds nuw %struct.FilterUnitsContext, ptr %23, i32 0, i32 3
  %25 = load ptr, ptr %24, align 8, !tbaa !18
  %26 = icmp ne ptr %25, null
  br i1 %26, label %27, label %44

27:                                               ; preds = %22
  %28 = load ptr, ptr %4, align 8, !tbaa !16
  %29 = getelementptr inbounds nuw %struct.FilterUnitsContext, ptr %28, i32 0, i32 7
  store i32 1, ptr %29, align 8, !tbaa !29
  %30 = load ptr, ptr %4, align 8, !tbaa !16
  %31 = getelementptr inbounds nuw %struct.FilterUnitsContext, ptr %30, i32 0, i32 3
  %32 = load ptr, ptr %31, align 8, !tbaa !18
  %33 = load ptr, ptr %4, align 8, !tbaa !16
  %34 = getelementptr inbounds nuw %struct.FilterUnitsContext, ptr %33, i32 0, i32 8
  %35 = load ptr, ptr %4, align 8, !tbaa !16
  %36 = getelementptr inbounds nuw %struct.FilterUnitsContext, ptr %35, i32 0, i32 9
  %37 = call i32 @filter_units_make_type_list(ptr noundef %32, ptr noundef %34, ptr noundef %36)
  store i32 %37, ptr %5, align 4, !tbaa !30
  %38 = load i32, ptr %5, align 4, !tbaa !30
  %39 = icmp slt i32 %38, 0
  br i1 %39, label %40, label %43

40:                                               ; preds = %27
  %41 = load ptr, ptr %3, align 8, !tbaa !4
  call void (ptr, i32, ptr, ...) @av_log(ptr noundef %41, i32 noundef 16, ptr noundef @.str.28)
  %42 = load i32, ptr %5, align 4, !tbaa !30
  store i32 %42, ptr %2, align 4
  store i32 1, ptr %6, align 4
  br label %147

43:                                               ; preds = %27
  br label %76

44:                                               ; preds = %22
  %45 = load ptr, ptr %4, align 8, !tbaa !16
  %46 = getelementptr inbounds nuw %struct.FilterUnitsContext, ptr %45, i32 0, i32 4
  %47 = load ptr, ptr %46, align 8, !tbaa !28
  %48 = icmp ne ptr %47, null
  br i1 %48, label %49, label %66

49:                                               ; preds = %44
  %50 = load ptr, ptr %4, align 8, !tbaa !16
  %51 = getelementptr inbounds nuw %struct.FilterUnitsContext, ptr %50, i32 0, i32 7
  store i32 2, ptr %51, align 8, !tbaa !29
  %52 = load ptr, ptr %4, align 8, !tbaa !16
  %53 = getelementptr inbounds nuw %struct.FilterUnitsContext, ptr %52, i32 0, i32 4
  %54 = load ptr, ptr %53, align 8, !tbaa !28
  %55 = load ptr, ptr %4, align 8, !tbaa !16
  %56 = getelementptr inbounds nuw %struct.FilterUnitsContext, ptr %55, i32 0, i32 8
  %57 = load ptr, ptr %4, align 8, !tbaa !16
  %58 = getelementptr inbounds nuw %struct.FilterUnitsContext, ptr %57, i32 0, i32 9
  %59 = call i32 @filter_units_make_type_list(ptr noundef %54, ptr noundef %56, ptr noundef %58)
  store i32 %59, ptr %5, align 4, !tbaa !30
  %60 = load i32, ptr %5, align 4, !tbaa !30
  %61 = icmp slt i32 %60, 0
  br i1 %61, label %62, label %65

62:                                               ; preds = %49
  %63 = load ptr, ptr %3, align 8, !tbaa !4
  call void (ptr, i32, ptr, ...) @av_log(ptr noundef %63, i32 noundef 16, ptr noundef @.str.29)
  %64 = load i32, ptr %5, align 4, !tbaa !30
  store i32 %64, ptr %2, align 4
  store i32 1, ptr %6, align 4
  br label %147

65:                                               ; preds = %49
  br label %75

66:                                               ; preds = %44
  %67 = load ptr, ptr %4, align 8, !tbaa !16
  %68 = getelementptr inbounds nuw %struct.FilterUnitsContext, ptr %67, i32 0, i32 5
  %69 = load i32, ptr %68, align 8, !tbaa !31
  %70 = icmp eq i32 %69, -16
  br i1 %70, label %71, label %74

71:                                               ; preds = %66
  %72 = load ptr, ptr %4, align 8, !tbaa !16
  %73 = getelementptr inbounds nuw %struct.FilterUnitsContext, ptr %72, i32 0, i32 10
  store i8 1, ptr %73, align 4, !tbaa !32
  store i32 0, ptr %2, align 4
  store i32 1, ptr %6, align 4
  br label %147

74:                                               ; preds = %66
  br label %75

75:                                               ; preds = %74, %65
  br label %76

76:                                               ; preds = %75, %43
  %77 = load ptr, ptr %4, align 8, !tbaa !16
  %78 = getelementptr inbounds nuw %struct.FilterUnitsContext, ptr %77, i32 0, i32 1
  %79 = load ptr, ptr %3, align 8, !tbaa !4
  %80 = getelementptr inbounds nuw %struct.AVBSFContext, ptr %79, i32 0, i32 3
  %81 = load ptr, ptr %80, align 8, !tbaa !33
  %82 = getelementptr inbounds nuw %struct.AVCodecParameters, ptr %81, i32 0, i32 1
  %83 = load i32, ptr %82, align 4, !tbaa !34
  %84 = load ptr, ptr %3, align 8, !tbaa !4
  %85 = call i32 @ff_cbs_init(ptr noundef %78, i32 noundef %83, ptr noundef %84)
  store i32 %85, ptr %5, align 4, !tbaa !30
  %86 = load i32, ptr %5, align 4, !tbaa !30
  %87 = icmp slt i32 %86, 0
  br i1 %87, label %88, label %90

88:                                               ; preds = %76
  %89 = load i32, ptr %5, align 4, !tbaa !30
  store i32 %89, ptr %2, align 4
  store i32 1, ptr %6, align 4
  br label %147

90:                                               ; preds = %76
  %91 = load ptr, ptr %4, align 8, !tbaa !16
  %92 = getelementptr inbounds nuw %struct.FilterUnitsContext, ptr %91, i32 0, i32 5
  %93 = load i32, ptr %92, align 8, !tbaa !31
  %94 = icmp eq i32 %93, -16
  br i1 %94, label %95, label %107

95:                                               ; preds = %90
  %96 = load ptr, ptr %4, align 8, !tbaa !16
  %97 = getelementptr inbounds nuw %struct.FilterUnitsContext, ptr %96, i32 0, i32 8
  %98 = load ptr, ptr %97, align 8, !tbaa !38
  %99 = load ptr, ptr %4, align 8, !tbaa !16
  %100 = getelementptr inbounds nuw %struct.FilterUnitsContext, ptr %99, i32 0, i32 1
  %101 = load ptr, ptr %100, align 8, !tbaa !39
  %102 = getelementptr inbounds nuw %struct.CodedBitstreamContext, ptr %101, i32 0, i32 3
  store ptr %98, ptr %102, align 8, !tbaa !40
  %103 = load ptr, ptr %4, align 8, !tbaa !16
  %104 = getelementptr inbounds nuw %struct.FilterUnitsContext, ptr %103, i32 0, i32 1
  %105 = load ptr, ptr %104, align 8, !tbaa !39
  %106 = getelementptr inbounds nuw %struct.CodedBitstreamContext, ptr %105, i32 0, i32 4
  store i32 0, ptr %106, align 8, !tbaa !43
  br label %107

107:                                              ; preds = %95, %90
  %108 = load ptr, ptr %3, align 8, !tbaa !4
  %109 = getelementptr inbounds nuw %struct.AVBSFContext, ptr %108, i32 0, i32 3
  %110 = load ptr, ptr %109, align 8, !tbaa !33
  %111 = getelementptr inbounds nuw %struct.AVCodecParameters, ptr %110, i32 0, i32 3
  %112 = load ptr, ptr %111, align 8, !tbaa !44
  %113 = icmp ne ptr %112, null
  br i1 %113, label %114, label %145

114:                                              ; preds = %107
  call void @llvm.lifetime.start.p0(i64 8, ptr %7) #4
  %115 = load ptr, ptr %4, align 8, !tbaa !16
  %116 = getelementptr inbounds nuw %struct.FilterUnitsContext, ptr %115, i32 0, i32 2
  store ptr %116, ptr %7, align 8, !tbaa !45
  %117 = load ptr, ptr %4, align 8, !tbaa !16
  %118 = getelementptr inbounds nuw %struct.FilterUnitsContext, ptr %117, i32 0, i32 1
  %119 = load ptr, ptr %118, align 8, !tbaa !39
  %120 = load ptr, ptr %7, align 8, !tbaa !45
  %121 = load ptr, ptr %3, align 8, !tbaa !4
  %122 = getelementptr inbounds nuw %struct.AVBSFContext, ptr %121, i32 0, i32 3
  %123 = load ptr, ptr %122, align 8, !tbaa !33
  %124 = call i32 @ff_cbs_read_extradata(ptr noundef %119, ptr noundef %120, ptr noundef %123)
  store i32 %124, ptr %5, align 4, !tbaa !30
  %125 = load i32, ptr %5, align 4, !tbaa !30
  %126 = icmp slt i32 %125, 0
  br i1 %126, label %127, label %129

127:                                              ; preds = %114
  %128 = load ptr, ptr %3, align 8, !tbaa !4
  call void (ptr, i32, ptr, ...) @av_log(ptr noundef %128, i32 noundef 16, ptr noundef @.str.30)
  br label %143

129:                                              ; preds = %114
  %130 = load ptr, ptr %4, align 8, !tbaa !16
  %131 = getelementptr inbounds nuw %struct.FilterUnitsContext, ptr %130, i32 0, i32 1
  %132 = load ptr, ptr %131, align 8, !tbaa !39
  %133 = load ptr, ptr %3, align 8, !tbaa !4
  %134 = getelementptr inbounds nuw %struct.AVBSFContext, ptr %133, i32 0, i32 4
  %135 = load ptr, ptr %134, align 8, !tbaa !47
  %136 = load ptr, ptr %7, align 8, !tbaa !45
  %137 = call i32 @ff_cbs_write_extradata(ptr noundef %132, ptr noundef %135, ptr noundef %136)
  store i32 %137, ptr %5, align 4, !tbaa !30
  %138 = load i32, ptr %5, align 4, !tbaa !30
  %139 = icmp slt i32 %138, 0
  br i1 %139, label %140, label %142

140:                                              ; preds = %129
  %141 = load ptr, ptr %3, align 8, !tbaa !4
  call void (ptr, i32, ptr, ...) @av_log(ptr noundef %141, i32 noundef 16, ptr noundef @.str.31)
  br label %142

142:                                              ; preds = %140, %129
  br label %143

143:                                              ; preds = %142, %127
  %144 = load ptr, ptr %7, align 8, !tbaa !45
  call void @ff_cbs_fragment_reset(ptr noundef %144)
  call void @llvm.lifetime.end.p0(i64 8, ptr %7) #4
  br label %145

145:                                              ; preds = %143, %107
  %146 = load i32, ptr %5, align 4, !tbaa !30
  store i32 %146, ptr %2, align 4
  store i32 1, ptr %6, align 4
  br label %147

147:                                              ; preds = %145, %88, %71, %62, %40, %20
  call void @llvm.lifetime.end.p0(i64 4, ptr %5) #4
  call void @llvm.lifetime.end.p0(i64 8, ptr %4) #4
  %148 = load i32, ptr %2, align 4
  ret i32 %148
}