; Function Attrs: nounwind uwtable
define internal i32 @filter_units_init(ptr noundef %0) #0 {
  %2 = getelementptr inbounds nuw i8, ptr %0, i64 16
  %3 = load ptr, ptr %2, align 8, !tbaa !4
  %4 = getelementptr inbounds nuw i8, ptr %3, i64 64
  %5 = load ptr, ptr %4, align 8, !tbaa !14
  %.not = icmp eq ptr %5, null
  %6 = getelementptr inbounds nuw i8, ptr %3, i64 72
  %7 = load ptr, ptr %6, align 8, !tbaa !24
  %.not55 = icmp eq ptr %7, null
  br i1 %.not, label %17, label %8

8:                                                ; preds = %1
  br i1 %.not55, label %10, label %9

9:                                                ; preds = %8
  tail call void (ptr, i32, ptr, ...) @av_log(ptr noundef nonnull %0, i32 noundef 16, ptr noundef nonnull @.str.27) #4
  br label %65

10:                                               ; preds = %8
  %11 = getelementptr inbounds nuw i8, ptr %3, i64 88
  store i32 1, ptr %11, align 8, !tbaa !25
  %12 = getelementptr inbounds nuw i8, ptr %3, i64 96
  %13 = getelementptr inbounds nuw i8, ptr %3, i64 104
  %14 = tail call fastcc i32 @filter_units_make_type_list(ptr noundef nonnull %5, ptr noundef nonnull %12, ptr noundef nonnull %13)
  %15 = icmp slt i32 %14, 0
  br i1 %15, label %16, label %31

16:                                               ; preds = %10
  tail call void (ptr, i32, ptr, ...) @av_log(ptr noundef nonnull %0, i32 noundef 16, ptr noundef nonnull @.str.28) #4
  br label %65

17:                                               ; preds = %1
  br i1 %.not55, label %25, label %18

18:                                               ; preds = %17
  %19 = getelementptr inbounds nuw i8, ptr %3, i64 88
  store i32 2, ptr %19, align 8, !tbaa !25
  %20 = getelementptr inbounds nuw i8, ptr %3, i64 96
  %21 = getelementptr inbounds nuw i8, ptr %3, i64 104
  %22 = tail call fastcc i32 @filter_units_make_type_list(ptr noundef nonnull %7, ptr noundef nonnull %20, ptr noundef nonnull %21)
  %23 = icmp slt i32 %22, 0
  br i1 %23, label %24, label %31

24:                                               ; preds = %18
  tail call void (ptr, i32, ptr, ...) @av_log(ptr noundef nonnull %0, i32 noundef 16, ptr noundef nonnull @.str.29) #4
  br label %65

25:                                               ; preds = %17
  %26 = getelementptr inbounds nuw i8, ptr %3, i64 80
  %27 = load i32, ptr %26, align 8, !tbaa !26
  %28 = icmp eq i32 %27, -16
  br i1 %28, label %29, label %31

29:                                               ; preds = %25
  %30 = getelementptr inbounds nuw i8, ptr %3, i64 108
  store i8 1, ptr %30, align 4, !tbaa !27
  br label %65

31:                                               ; preds = %18, %25, %10
  %32 = getelementptr inbounds nuw i8, ptr %3, i64 8
  %33 = getelementptr inbounds nuw i8, ptr %0, i64 24
  %34 = load ptr, ptr %33, align 8, !tbaa !28
  %35 = getelementptr inbounds nuw i8, ptr %34, i64 4
  %36 = load i32, ptr %35, align 4, !tbaa !29
  %37 = tail call i32 @ff_cbs_init(ptr noundef nonnull %32, i32 noundef %36, ptr noundef nonnull %0) #4
  %38 = icmp slt i32 %37, 0
  br i1 %38, label %65, label %39

39:                                               ; preds = %31
  %40 = getelementptr inbounds nuw i8, ptr %3, i64 80
  %41 = load i32, ptr %40, align 8, !tbaa !26
  %42 = icmp eq i32 %41, -16
  br i1 %42, label %43, label %49

43:                                               ; preds = %39
  %44 = getelementptr inbounds nuw i8, ptr %3, i64 96
  %45 = load ptr, ptr %44, align 8, !tbaa !33
  %46 = load ptr, ptr %32, align 8, !tbaa !34
  %47 = getelementptr inbounds nuw i8, ptr %46, i64 24
  store ptr %45, ptr %47, align 8, !tbaa !35
  %48 = getelementptr inbounds nuw i8, ptr %46, i64 32
  store i32 0, ptr %48, align 8, !tbaa !38
  br label %49

49:                                               ; preds = %43, %39
  %50 = load ptr, ptr %33, align 8, !tbaa !28
  %51 = getelementptr inbounds nuw i8, ptr %50, i64 16
  %52 = load ptr, ptr %51, align 8, !tbaa !39
  %.not56 = icmp eq ptr %52, null
  br i1 %.not56, label %65, label %53

53:                                               ; preds = %49
  %54 = getelementptr inbounds nuw i8, ptr %3, i64 16
  %55 = load ptr, ptr %32, align 8, !tbaa !34
  %56 = tail call i32 @ff_cbs_read_extradata(ptr noundef %55, ptr noundef nonnull %54, ptr noundef nonnull %50) #4
  %57 = icmp slt i32 %56, 0
  br i1 %57, label %.sink.split, label %58

58:                                               ; preds = %53
  %59 = load ptr, ptr %32, align 8, !tbaa !34
  %60 = getelementptr inbounds nuw i8, ptr %0, i64 32
  %61 = load ptr, ptr %60, align 8, !tbaa !40
  %62 = tail call i32 @ff_cbs_write_extradata(ptr noundef %59, ptr noundef %61, ptr noundef nonnull %54) #4
  %63 = icmp slt i32 %62, 0
  br i1 %63, label %.sink.split, label %64

.sink.split:                                      ; preds = %58, %53
  %.str.31.sink = phi ptr [ @.str.30, %53 ], [ @.str.31, %58 ]
  %.1.ph = phi i32 [ %56, %53 ], [ %62, %58 ]
  tail call void (ptr, i32, ptr, ...) @av_log(ptr noundef nonnull %0, i32 noundef 16, ptr noundef nonnull %.str.31.sink) #4
  br label %64

64:                                               ; preds = %.sink.split, %58
  %.1 = phi i32 [ %62, %58 ], [ %.1.ph, %.sink.split ]
  tail call void @ff_cbs_fragment_reset(ptr noundef nonnull %54) #4
  br label %65

65:                                               ; preds = %49, %64, %31, %29, %24, %16, %9
  %.0 = phi i32 [ -22, %9 ], [ %14, %16 ], [ %22, %24 ], [ 0, %29 ], [ %37, %31 ], [ %.1, %64 ], [ %37, %49 ]
  ret i32 %.0
}